target datalayout = "e-m:e-p270:32:32-p271:32:32-p272:64:64-i64:64-i128:128-f80:128-n8:16:32:64-S128"
target triple = "x86_64-pc-linux-gnu"

%"struct.std::__detail::_Hash_node_base" = type { ptr }
%"struct.std::__detail::_Prime_rehash_policy" = type { float, i64 }
%"class.std::vector.5" = type { %"struct.std::_Vector_base.6" }
%"struct.std::_Vector_base.6" = type { %"struct.std::_Vector_base<WasmEdge::Plugin::Plugin, std::allocator<WasmEdge::Plugin::Plugin>>::_Vector_impl" }
%"struct.std::_Vector_base<WasmEdge::Plugin::Plugin, std::allocator<WasmEdge::Plugin::Plugin>>::_Vector_impl" = type { %"struct.std::_Vector_base<WasmEdge::Plugin::Plugin, std::allocator<WasmEdge::Plugin::Plugin>>::_Vector_impl_data" }
%"struct.std::_Vector_base<WasmEdge::Plugin::Plugin, std::allocator<WasmEdge::Plugin::Plugin>>::_Vector_impl_data" = type { ptr, ptr, ptr }
%"class.std::unordered_map.10" = type { %"class.std::_Hashtable.11" }
%"class.std::_Hashtable.11" = type { ptr, i64, %"struct.std::__detail::_Hash_node_base", i64, %"struct.std::__detail::_Prime_rehash_policy", ptr }
%"class.std::filesystem::__cxx11::path" = type { %"class.std::__cxx11::basic_string", %"struct.std::filesystem::__cxx11::path::_List" }
%"class.std::__cxx11::basic_string" = type { %"struct.std::__cxx11::basic_string<char>::_Alloc_hider", i64, %union.anon }
%"struct.std::__cxx11::basic_string<char>::_Alloc_hider" = type { ptr }
%union.anon = type { i64, [8 x i8] }
%"struct.std::filesystem::__cxx11::path::_List" = type { %"class.std::unique_ptr" }
%"class.std::unique_ptr" = type { %"struct.std::__uniq_ptr_data" }
%"struct.std::__uniq_ptr_data" = type { %"class.std::__uniq_ptr_impl" }
%"class.std::__uniq_ptr_impl" = type { %"class.std::tuple" }
%"class.std::tuple" = type { %"struct.std::_Tuple_impl" }
%"struct.std::_Tuple_impl" = type { %"struct.std::_Head_base.39" }
%"struct.std::_Head_base.39" = type { ptr }
%"class.std::__shared_count" = type { ptr }
%"class.std::shared_ptr" = type { %"class.std::__shared_ptr.40" }
%"class.std::__shared_ptr.40" = type { ptr, %"class.std::__shared_count" }
%"class.WasmEdge::Plugin::Plugin" = type { %"class.std::filesystem::__cxx11::path", ptr, %"class.std::shared_ptr", %"class.std::vector.65", %"class.std::vector.70", %"class.std::unordered_map.10", %"class.std::unordered_map.10" }
%"class.std::vector.65" = type { %"struct.std::_Vector_base.66" }
%"struct.std::_Vector_base.66" = type { %"struct.std::_Vector_base<WasmEdge::Plugin::PluginModule, std::allocator<WasmEdge::Plugin::PluginModule>>::_Vector_impl" }
%"struct.std::_Vector_base<WasmEdge::Plugin::PluginModule, std::allocator<WasmEdge::Plugin::PluginModule>>::_Vector_impl" = type { %"struct.std::_Vector_base<WasmEdge::Plugin::PluginModule, std::allocator<WasmEdge::Plugin::PluginModule>>::_Vector_impl_data" }
%"struct.std::_Vector_base<WasmEdge::Plugin::PluginModule, std::allocator<WasmEdge::Plugin::PluginModule>>::_Vector_impl_data" = type { ptr, ptr, ptr }
%"class.std::vector.70" = type { %"struct.std::_Vector_base.71" }
%"struct.std::_Vector_base.71" = type { %"struct.std::_Vector_base<WasmEdge::Plugin::PluginComponent, std::allocator<WasmEdge::Plugin::PluginComponent>>::_Vector_impl" }
%"struct.std::_Vector_base<WasmEdge::Plugin::PluginComponent, std::allocator<WasmEdge::Plugin::PluginComponent>>::_Vector_impl" = type { %"struct.std::_Vector_base<WasmEdge::Plugin::PluginComponent, std::allocator<WasmEdge::Plugin::PluginComponent>>::_Vector_impl_data" }
%"struct.std::_Vector_base<WasmEdge::Plugin::PluginComponent, std::allocator<WasmEdge::Plugin::PluginComponent>>::_Vector_impl_data" = type { ptr, ptr, ptr }
%"struct.WasmEdge::Plugin::Plugin::PluginDescriptor" = type { ptr, ptr, i32, %"struct.WasmEdge::Plugin::Plugin::VersionData", i64, ptr, i64, ptr, ptr }
%"struct.WasmEdge::Plugin::Plugin::VersionData" = type { i32, i32, i32, i32 }
%"class.__gnu_cxx::__normal_iterator.75" = type { ptr }

@_ZN8WasmEdge6Plugin6Plugin14PluginRegistryE = global %"class.std::vector.5" zeroinitializer, align 8

; Function Attrs: mustprogress nounwind uwtable
define linkonce_odr hidden noundef nonnull align 8 dereferenceable(8) ptr @_ZNK9__gnu_cxx17__normal_iteratorIPN8WasmEdge6Plugin6PluginESt6vectorIS3_SaIS3_EEE4baseEv(ptr noundef nonnull align 8 dereferenceable(8) %0) #1 comdat align 2 {
  %2 = alloca ptr, align 8
  store ptr %0, ptr %2, align 8
  %3 = load ptr, ptr %2, align 8
  %4 = getelementptr inbounds %"class.__gnu_cxx::__normal_iterator.75", ptr %3, i32 0, i32 0
  ret ptr %4
}

; Function Attrs: mustprogress nounwind uwtable
define linkonce_odr hidden void @_ZN9__gnu_cxx17__normal_iteratorIPN8WasmEdge6Plugin6PluginESt6vectorIS3_SaIS3_EEEC2ERKS4_(ptr noundef nonnull align 8 dereferenceable(8) %0, ptr noundef nonnull align 8 dereferenceable(8) %1) unnamed_addr #1 comdat align 2 {
  %3 = alloca ptr, align 8
  %4 = alloca ptr, align 8
  store ptr %0, ptr %3, align 8
  store ptr %1, ptr %4, align 8
  %5 = load ptr, ptr %3, align 8
  %6 = getelementptr inbounds %"class.__gnu_cxx::__normal_iterator.75", ptr %5, i32 0, i32 0
  %7 = load ptr, ptr %4, align 8
  %8 = load ptr, ptr %7, align 8
  store ptr %8, ptr %6, align 8
  ret void
}

; Function Attrs: mustprogress nounwind uwtable
define linkonce_odr hidden noundef nonnull align 8 dereferenceable(8) ptr @_ZN9__gnu_cxx17__normal_iteratorIPN8WasmEdge6Plugin6PluginESt6vectorIS3_SaIS3_EEEppEv(ptr noundef nonnull align 8 dereferenceable(8) %0) #1 comdat align 2 {
  %2 = alloca ptr, align 8
  store ptr %0, ptr %2, align 8
  %3 = load ptr, ptr %2, align 8
  %4 = getelementptr inbounds %"class.__gnu_cxx::__normal_iterator.75", ptr %3, i32 0, i32 0
  %5 = load ptr, ptr %4, align 8
  %6 = getelementptr inbounds %"class.WasmEdge::Plugin::Plugin", ptr %5, i32 1
  store ptr %6, ptr %4, align 8
  ret ptr %3
}

; Function Attrs: mustprogress nounwind uwtable
define linkonce_odr hidden noundef nonnull align 8 dereferenceable(224) ptr @_ZNK9__gnu_cxx17__normal_iteratorIPN8WasmEdge6Plugin6PluginESt6vectorIS3_SaIS3_EEEdeEv(ptr noundef nonnull align 8 dereferenceable(8) %0) #1 comdat align 2 {
  %2 = alloca ptr, align 8
  store ptr %0, ptr %2, align 8
  %3 = load ptr, ptr %2, align 8
  %4 = getelementptr inbounds %"class.__gnu_cxx::__normal_iterator.75", ptr %3, i32 0, i32 0
  %5 = load ptr, ptr %4, align 8
  ret ptr %5
}

; Function Attrs: mustprogress nounwind uwtable
define linkonce_odr noundef zeroext i1 @_ZN9__gnu_cxxneIPN8WasmEdge6Plugin6PluginESt6vectorIS3_SaIS3_EEEEbRKNS_17__normal_iteratorIT_T0_EESD_(ptr noundef nonnull align 8 dereferenceable(8) %0, ptr noundef nonnull align 8 dereferenceable(8) %1) #1 comdat {
  %3 = alloca ptr, align 8
  %4 = alloca ptr, align 8
  store ptr %0, ptr %3, align 8
  store ptr %1, ptr %4, align 8
  %5 = load ptr, ptr %3, align 8
  %6 = call noundef nonnull align 8 dereferenceable(8) ptr @_ZNK9__gnu_cxx17__normal_iteratorIPN8WasmEdge6Plugin6PluginESt6vectorIS3_SaIS3_EEE4baseEv(ptr noundef nonnull align 8 dereferenceable(8) %5) #2
  %7 = load ptr, ptr %6, align 8
  %8 = load ptr, ptr %4, align 8
  %9 = call noundef nonnull align 8 dereferenceable(8) ptr @_ZNK9__gnu_cxx17__normal_iteratorIPN8WasmEdge6Plugin6PluginESt6vectorIS3_SaIS3_EEE4baseEv(ptr noundef nonnull align 8 dereferenceable(8) %8) #2
  %10 = load ptr, ptr %9, align 8
  %11 = icmp ne ptr %7, %10
  ret i1 %11
}

; Function Attrs: mustprogress nounwind uwtable
define linkonce_odr hidden ptr @_ZNSt6vectorIN8WasmEdge6Plugin6PluginESaIS2_EE3endEv(ptr noundef nonnull align 8 dereferenceable(24) %0) #1 comdat align 2 {
  %2 = alloca %"class.__gnu_cxx::__normal_iterator.75", align 8
  %3 = alloca ptr, align 8
  store ptr %0, ptr %3, align 8
  %4 = load ptr, ptr %3, align 8
  %5 = getelementptr inbounds %"struct.std::_Vector_base.6", ptr %4, i32 0, i32 0
  %6 = getelementptr inbounds %"struct.std::_Vector_base<WasmEdge::Plugin::Plugin, std::allocator<WasmEdge::Plugin::Plugin>>::_Vector_impl_data", ptr %5, i32 0, i32 1
  call void @_ZN9__gnu_cxx17__normal_iteratorIPN8WasmEdge6Plugin6PluginESt6vectorIS3_SaIS3_EEEC2ERKS4_(ptr noundef nonnull align 8 dereferenceable(8) %2, ptr noundef nonnull align 8 dereferenceable(8) %6) #2
  %7 = getelementptr inbounds %"class.__gnu_cxx::__normal_iterator.75", ptr %2, i32 0, i32 0
  %8 = load ptr, ptr %7, align 8
  ret ptr %8
}

; Function Attrs: mustprogress nounwind uwtable
define linkonce_odr hidden ptr @_ZNSt6vectorIN8WasmEdge6Plugin6PluginESaIS2_EE5beginEv(ptr noundef nonnull align 8 dereferenceable(24) %0) #1 comdat align 2 {
  %2 = alloca %"class.__gnu_cxx::__normal_iterator.75", align 8
  %3 = alloca ptr, align 8
  store ptr %0, ptr %3, align 8
  %4 = load ptr, ptr %3, align 8
  %5 = getelementptr inbounds %"struct.std::_Vector_base.6", ptr %4, i32 0, i32 0
  %6 = getelementptr inbounds %"struct.std::_Vector_base<WasmEdge::Plugin::Plugin, std::allocator<WasmEdge::Plugin::Plugin>>::_Vector_impl_data", ptr %5, i32 0, i32 0
  call void @_ZN9__gnu_cxx17__normal_iteratorIPN8WasmEdge6Plugin6PluginESt6vectorIS3_SaIS3_EEEC2ERKS4_(ptr noundef nonnull align 8 dereferenceable(8) %2, ptr noundef nonnull align 8 dereferenceable(8) %6) #2
  %7 = getelementptr inbounds %"class.__gnu_cxx::__normal_iterator.75", ptr %2, i32 0, i32 0
  %8 = load ptr, ptr %7, align 8
  ret ptr %8
}

; Function Attrs: mustprogress nounwind uwtable
define void @_ZN8WasmEdge6Plugin6Plugin16addPluginOptionsERNS_2PO14ArgumentParserE(ptr noundef nonnull align 8 dereferenceable(88) %0) #1 align 2 {
  %2 = alloca ptr, align 8
  %3 = alloca ptr, align 8
  %4 = alloca %"class.__gnu_cxx::__normal_iterator.75", align 8
  %5 = alloca %"class.__gnu_cxx::__normal_iterator.75", align 8
  %6 = alloca ptr, align 8
  store ptr %0, ptr %2, align 8
  store ptr @_ZN8WasmEdge6Plugin6Plugin14PluginRegistryE, ptr %3, align 8
  %7 = call ptr @_ZNSt6vectorIN8WasmEdge6Plugin6PluginESaIS2_EE5beginEv(ptr noundef nonnull align 8 dereferenceable(24) @_ZN8WasmEdge6Plugin6Plugin14PluginRegistryE) #2
  %8 = getelementptr inbounds %"class.__gnu_cxx::__normal_iterator.75", ptr %4, i32 0, i32 0
  store ptr %7, ptr %8, align 8
  %9 = call ptr @_ZNSt6vectorIN8WasmEdge6Plugin6PluginESaIS2_EE3endEv(ptr noundef nonnull align 8 dereferenceable(24) @_ZN8WasmEdge6Plugin6Plugin14PluginRegistryE) #2
  %10 = getelementptr inbounds %"class.__gnu_cxx::__normal_iterator.75", ptr %5, i32 0, i32 0
  store ptr %9, ptr %10, align 8
  br label %11

11:                                               ; preds = %32, %1
  %12 = call noundef zeroext i1 @_ZN9__gnu_cxxneIPN8WasmEdge6Plugin6PluginESt6vectorIS3_SaIS3_EEEEbRKNS_17__normal_iteratorIT_T0_EESD_(ptr noundef nonnull align 8 dereferenceable(8) %4, ptr noundef nonnull align 8 dereferenceable(8) %5) #2
  br i1 %12, label %13, label %34

13:                                               ; preds = %11
  %14 = call noundef nonnull align 8 dereferenceable(224) ptr @_ZNK9__gnu_cxx17__normal_iteratorIPN8WasmEdge6Plugin6PluginESt6vectorIS3_SaIS3_EEEdeEv(ptr noundef nonnull align 8 dereferenceable(8) %4) #2
  store ptr %14, ptr %6, align 8
  %15 = load ptr, ptr %6, align 8
  %16 = getelementptr inbounds %"class.WasmEdge::Plugin::Plugin", ptr %15, i32 0, i32 1
  %17 = load ptr, ptr %16, align 8
  %18 = getelementptr inbounds %"struct.WasmEdge::Plugin::Plugin::PluginDescriptor", ptr %17, i32 0, i32 8
  %19 = load ptr, ptr %18, align 8
  %20 = icmp ne ptr %19, null
  br i1 %20, label %21, label %31

21:                                               ; preds = %13
  %22 = load ptr, ptr %6, align 8
  %23 = getelementptr inbounds %"class.WasmEdge::Plugin::Plugin", ptr %22, i32 0, i32 1
  %24 = load ptr, ptr %23, align 8
  %25 = getelementptr inbounds %"struct.WasmEdge::Plugin::Plugin::PluginDescriptor", ptr %24, i32 0, i32 8
  %26 = load ptr, ptr %25, align 8
  %27 = load ptr, ptr %6, align 8
  %28 = getelementptr inbounds %"class.WasmEdge::Plugin::Plugin", ptr %27, i32 0, i32 1
  %29 = load ptr, ptr %28, align 8
  %30 = load ptr, ptr %2, align 8
  call void %26(ptr noundef %29, ptr noundef nonnull align 8 dereferenceable(88) %30) #2
  br label %31

31:                                               ; preds = %21, %13
  br label %32

32:                                               ; preds = %31
  %33 = call noundef nonnull align 8 dereferenceable(8) ptr @_ZN9__gnu_cxx17__normal_iteratorIPN8WasmEdge6Plugin6PluginESt6vectorIS3_SaIS3_EEEppEv(ptr noundef nonnull align 8 dereferenceable(8) %4) #2
  br label %11

34:                                               ; preds = %11
  ret void
}