; Function Attrs: mustprogress nounwind uwtable
define void @_ZN8WasmEdge6Plugin6Plugin16addPluginOptionsERNS_2PO14ArgumentParserE(ptr noundef nonnull align 8 dereferenceable(88) %0) local_unnamed_addr #0 align 2 {
  %2 = load ptr, ptr @_ZN8WasmEdge6Plugin6Plugin14PluginRegistryE, align 8
  %3 = load ptr, ptr getelementptr inbounds (i8, ptr @_ZN8WasmEdge6Plugin6Plugin14PluginRegistryE, i64 8), align 8
  %.not78 = icmp eq ptr %2, %3
  br i1 %.not78, label %._crit_edge, label %.lr.ph

.lr.ph:                                           ; preds = %1, %9
  %.sroa.04.09 = phi ptr [ %10, %9 ], [ %2, %1 ]
  %4 = getelementptr inbounds i8, ptr %.sroa.04.09, i64 40
  %5 = load ptr, ptr %4, align 8
  %6 = getelementptr inbounds i8, ptr %5, i64 72
  %7 = load ptr, ptr %6, align 8
  %.not = icmp eq ptr %7, null
  br i1 %.not, label %9, label %8

8:                                                ; preds = %.lr.ph
  tail call void %7(ptr noundef nonnull %5, ptr noundef nonnull align 8 dereferenceable(88) %0) #25
  br label %9

9:                                                ; preds = %.lr.ph, %8
  %10 = getelementptr inbounds i8, ptr %.sroa.04.09, i64 224
  %.not7 = icmp eq ptr %10, %3
  br i1 %.not7, label %._crit_edge, label %.lr.ph

._crit_edge:                                      ; preds = %9, %1
  ret void
}